; Function Attrs: mustprogress nofree norecurse nosync nounwind willreturn memory(none) uwtable
define hidden range(i32 0, 256) i32 @VP8FilterStrengthFromDelta(i32 noundef %0, i32 noundef %1) local_unnamed_addr #0 {
  %3 = tail call i32 @llvm.smin.i32(i32 %1, i32 63)
  %4 = sext i32 %0 to i64
  %5 = sext i32 %3 to i64
  %6 = getelementptr inbounds [8 x [64 x i8]], ptr @kLevelsFromDelta, i64 0, i64 %4, i64 %5
  %7 = load i8, ptr %6, align 1, !tbaa !3
  %8 = zext i8 %7 to i32
  ret i32 %8
}